target datalayout = "e-m:e-p270:32:32-p271:32:32-p272:64:64-i64:64-i128:128-f80:128-n8:16:32:64-S128"
target triple = "x86_64-pc-linux-gnu"

%class.FormatBuffer = type { %class.FormatBufferBase, [256 x i8] }
%class.FormatBufferBase = type { ptr }

@ConcGCThreads = external global i32, align 4
@ZMarkStackSpaceLimit = external global i64, align 8
@.str.9 = private unnamed_addr constant [57 x i8] c"ZMarkStackSpaceLimit too large for limited address space\00", align 1
@UseNUMA = external global i8, align 1
@ZCollectionInterval = external global double, align 8
@ZFragmentationLimit = external global double, align 8
@ZTenuringThreshold = external global i32, align 4
@MaxTenuringThreshold = external global i32, align 4
@ZPageSizeMedium = external global i64, align 8
@AlwaysTenure = external global i8, align 1
@NeverTenure = external global i8, align 1
@.str.10 = private unnamed_addr constant [52 x i8] c"ZTenuringThreshold and NeverTenure are incompatible\00", align 1
@LargePageSizeInBytes = external global i64, align 8
@.str.11 = private unnamed_addr constant [82 x i8] c"Incompatible -XX:LargePageSizeInBytes, only %luM large pages are supported by ZGC\00", align 1
@.str.12 = private unnamed_addr constant [68 x i8] c"ZTenuringThreshold must be be within bounds of MaxTenuringThreshold\00", align 1
@UseCountedLoopSafepoints = external global i8, align 1
@LoopStripMiningIter = external global i64, align 8
@UseCompressedOops = external global i8, align 1
@LogEventsBufferEntries = external global i32, align 4
@VerifyDuringStartup = external global i8, align 1
@VerifyBeforeExit = external global i8, align 1
@VerifyBeforeGC = external global i8, align 1
@VerifyDuringGC = external global i8, align 1
@VerifyAfterGC = external global i8, align 1
@ZVerifyRoots = external global i8, align 1
@ZVerifyObjects = external global i8, align 1

; Function Attrs: mustprogress nounwind uwtable
define linkonce_odr hidden noundef i32 @_ZN13JVMFlagAccess3setIbLi0EEEN7JVMFlag5ErrorE12JVMFlagsEnumT_13JVMFlagOrigin(i32 noundef %0, i1 noundef zeroext %1, i32 noundef %2) #1 comdat align 2 {
  %4 = alloca i32, align 4
  %5 = alloca i8, align 1
  %6 = alloca i32, align 4
  store i32 %0, ptr %4, align 4
  %7 = zext i1 %1 to i8
  store i8 %7, ptr %5, align 1
  store i32 %2, ptr %6, align 4
  %8 = load i32, ptr %4, align 4
  %9 = load i32, ptr %6, align 4
  %10 = call noundef i32 @_ZN13JVMFlagAccess13set_or_assertE12JVMFlagsEnumiPv13JVMFlagOrigin(i32 noundef %8, i32 noundef 0, ptr noundef %5, i32 noundef %9)
  ret i32 %10
}

; Function Attrs: mustprogress nounwind uwtable
define linkonce_odr hidden noundef i32 @_ZN13JVMFlagAccess3setIjLi2EEEN7JVMFlag5ErrorE12JVMFlagsEnumT_13JVMFlagOrigin(i32 noundef %0, i32 noundef %1, i32 noundef %2) #1 comdat align 2 {
  %4 = alloca i32, align 4
  %5 = alloca i32, align 4
  %6 = alloca i32, align 4
  store i32 %0, ptr %4, align 4
  store i32 %1, ptr %5, align 4
  store i32 %2, ptr %6, align 4
  %7 = load i32, ptr %4, align 4
  %8 = load i32, ptr %6, align 4
  %9 = call noundef i32 @_ZN13JVMFlagAccess13set_or_assertE12JVMFlagsEnumiPv13JVMFlagOrigin(i32 noundef %7, i32 noundef 2, ptr noundef %5, i32 noundef %8)
  ret i32 %9
}

; Function Attrs: mustprogress nounwind uwtable
define linkonce_odr hidden noundef i32 @_ZN13JVMFlagAccess3setIdLi7EEEN7JVMFlag5ErrorE12JVMFlagsEnumT_13JVMFlagOrigin(i32 noundef %0, double noundef %1, i32 noundef %2) #1 comdat align 2 {
  %4 = alloca i32, align 4
  %5 = alloca double, align 8
  %6 = alloca i32, align 4
  store i32 %0, ptr %4, align 4
  store double %1, ptr %5, align 8
  store i32 %2, ptr %6, align 4
  %7 = load i32, ptr %4, align 4
  %8 = load i32, ptr %6, align 4
  %9 = call noundef i32 @_ZN13JVMFlagAccess13set_or_assertE12JVMFlagsEnumiPv13JVMFlagOrigin(i32 noundef %7, i32 noundef 7, ptr noundef %5, i32 noundef %8)
  ret i32 %9
}

; Function Attrs: mustprogress nounwind uwtable
define linkonce_odr hidden noundef ptr @_ZNK16FormatBufferBasecvPKcEv(ptr noundef nonnull align 8 dereferenceable(8) %0) #1 comdat align 2 {
  %2 = alloca ptr, align 8
  store ptr %0, ptr %2, align 8
  %3 = load ptr, ptr %2, align 8
  %4 = getelementptr inbounds %class.FormatBufferBase, ptr %3, i32 0, i32 0
  %5 = load ptr, ptr %4, align 8
  ret ptr %5
}

; Function Attrs: mustprogress nounwind uwtable
define linkonce_odr hidden noundef i32 @_Z21Flag_AlwaysTenure_setb13JVMFlagOrigin(i1 noundef zeroext %0, i32 noundef %1) #1 comdat {
  %3 = alloca i8, align 1
  %4 = alloca i32, align 4
  %5 = zext i1 %0 to i8
  store i8 %5, ptr %3, align 1
  store i32 %1, ptr %4, align 4
  %6 = load i8, ptr %3, align 1
  %7 = trunc i8 %6 to i1
  %8 = load i32, ptr %4, align 4
  %9 = call noundef i32 @_ZN13JVMFlagAccess3setIbLi0EEEN7JVMFlag5ErrorE12JVMFlagsEnumT_13JVMFlagOrigin(i32 noundef 1097, i1 noundef zeroext %7, i32 noundef %8)
  ret i32 %9
}

; Function Attrs: mustprogress nounwind uwtable
define linkonce_odr hidden noundef i32 @_Z29Flag_MaxTenuringThreshold_setj13JVMFlagOrigin(i32 noundef %0, i32 noundef %1) #1 comdat {
  %3 = alloca i32, align 4
  %4 = alloca i32, align 4
  store i32 %0, ptr %3, align 4
  store i32 %1, ptr %4, align 4
  %5 = load i32, ptr %3, align 4
  %6 = load i32, ptr %4, align 4
  %7 = call noundef i32 @_ZN13JVMFlagAccess3setIjLi2EEEN7JVMFlag5ErrorE12JVMFlagsEnumT_13JVMFlagOrigin(i32 noundef 1204, i32 noundef %5, i32 noundef %6)
  ret i32 %7
}

; Function Attrs: mustprogress nounwind uwtable
define linkonce_odr hidden noundef i32 @_Z33Flag_ZCollectionIntervalMajor_setd13JVMFlagOrigin(double noundef %0, i32 noundef %1) #1 comdat {
  %3 = alloca double, align 8
  %4 = alloca i32, align 4
  store double %0, ptr %3, align 8
  store i32 %1, ptr %4, align 4
  %5 = load double, ptr %3, align 8
  %6 = load i32, ptr %4, align 4
  %7 = call noundef i32 @_ZN13JVMFlagAccess3setIdLi7EEEN7JVMFlag5ErrorE12JVMFlagsEnumT_13JVMFlagOrigin(i32 noundef 1075, double noundef %5, i32 noundef %6)
  ret i32 %7
}

; Function Attrs: mustprogress nounwind uwtable
define hidden void @_ZN10ZArguments10initializeEv() #1 align 2 {
  %1 = alloca i64, align 8
  %2 = alloca i32, align 4
  %3 = alloca i64, align 8
  %4 = alloca i64, align 8
  %5 = alloca %class.FormatBuffer, align 8
  %6 = alloca %class.FormatBuffer, align 8
  %7 = alloca %class.FormatBuffer, align 8
  %8 = call noundef i64 @_ZN18ZAddressSpaceLimit10mark_stackEv()
  store i64 %8, ptr %1, align 8
  %9 = load i64, ptr @ZMarkStackSpaceLimit, align 8
  %10 = load i64, ptr %1, align 8
  %11 = icmp ugt i64 %9, %10
  br i1 %11, label %12, label %17

12:                                               ; preds = %0
  %13 = call noundef zeroext i1 @_ZN7JVMFlag10is_defaultE12JVMFlagsEnum(i32 noundef 1060)
  br i1 %13, label %15, label %14

14:                                               ; preds = %12
  call void @_Z29vm_exit_during_initializationPKcS0_(ptr noundef @.str.9, ptr noundef null)
  br label %15

15:                                               ; preds = %14, %12
  %16 = load i64, ptr %1, align 8
  store i64 %16, ptr @ZMarkStackSpaceLimit, align 8
  br label %17

17:                                               ; preds = %15, %0
  %18 = call noundef zeroext i1 @_ZN7JVMFlag10is_defaultE12JVMFlagsEnum(i32 noundef 459)
  br i1 %18, label %19, label %20

19:                                               ; preds = %17
  store i8 1, ptr @UseNUMA, align 1
  br label %20

20:                                               ; preds = %19, %17
  call void @_ZN10ZArguments21select_max_gc_threadsEv()
  %21 = call noundef zeroext i1 @_ZN7JVMFlag10is_defaultE12JVMFlagsEnum(i32 noundef 1061)
  br i1 %21, label %30, label %22

22:                                               ; preds = %20
  br label %23

23:                                               ; preds = %22
  %24 = call noundef zeroext i1 @_ZN7JVMFlag10is_defaultE12JVMFlagsEnum(i32 noundef 1075)
  br i1 %24, label %25, label %28

25:                                               ; preds = %23
  %26 = load double, ptr @ZCollectionInterval, align 8
  %27 = call noundef i32 @_Z33Flag_ZCollectionIntervalMajor_setd13JVMFlagOrigin(double noundef %26, i32 noundef 5)
  br label %28

28:                                               ; preds = %25, %23
  br label %29

29:                                               ; preds = %28
  br label %30

30:                                               ; preds = %29, %20
  %31 = call noundef zeroext i1 @_ZN7JVMFlag10is_defaultE12JVMFlagsEnum(i32 noundef 1059)
  br i1 %31, label %32, label %33

32:                                               ; preds = %30
  store double 5.000000e+00, ptr @ZFragmentationLimit, align 8
  br label %33

33:                                               ; preds = %32, %30
  call void @_ZN11ZHeuristics20set_medium_page_sizeEv()
  %34 = call noundef zeroext i1 @_ZN7JVMFlag10is_defaultE12JVMFlagsEnum(i32 noundef 1083)
  br i1 %34, label %56, label %35

35:                                               ; preds = %33
  %36 = load i32, ptr @ZTenuringThreshold, align 4
  %37 = icmp ne i32 %36, -1
  br i1 %37, label %38, label %56

38:                                               ; preds = %35
  br label %39

39:                                               ; preds = %38
  %40 = call noundef zeroext i1 @_ZN7JVMFlag10is_defaultE12JVMFlagsEnum(i32 noundef 1204)
  br i1 %40, label %41, label %44

41:                                               ; preds = %39
  %42 = load i32, ptr @ZTenuringThreshold, align 4
  %43 = call noundef i32 @_Z29Flag_MaxTenuringThreshold_setj13JVMFlagOrigin(i32 noundef %42, i32 noundef 5)
  br label %44

44:                                               ; preds = %41, %39
  br label %45

45:                                               ; preds = %44
  %46 = load i32, ptr @MaxTenuringThreshold, align 4
  %47 = icmp eq i32 %46, 0
  br i1 %47, label %48, label %55

48:                                               ; preds = %45
  br label %49

49:                                               ; preds = %48
  %50 = call noundef zeroext i1 @_ZN7JVMFlag10is_defaultE12JVMFlagsEnum(i32 noundef 1097)
  br i1 %50, label %51, label %53

51:                                               ; preds = %49
  %52 = call noundef i32 @_Z21Flag_AlwaysTenure_setb13JVMFlagOrigin(i1 noundef zeroext true, i32 noundef 5)
  br label %53

53:                                               ; preds = %51, %49
  br label %54

54:                                               ; preds = %53
  br label %55

55:                                               ; preds = %54, %45
  br label %56

56:                                               ; preds = %55, %35, %33
  %57 = call noundef zeroext i1 @_ZN7JVMFlag10is_defaultE12JVMFlagsEnum(i32 noundef 1204)
  br i1 %57, label %58, label %92

58:                                               ; preds = %56
  store i32 0, ptr %2, align 4
  br label %59

59:                                               ; preds = %81, %58
  %60 = load i32, ptr %2, align 4
  %61 = load i32, ptr @MaxTenuringThreshold, align 4
  %62 = icmp ult i32 %60, %61
  br i1 %62, label %63, label %84

63:                                               ; preds = %59
  %64 = load i64, ptr @ZPageSizeMedium, align 8
  %65 = load i32, ptr %2, align 4
  %66 = zext i32 %65 to i64
  %67 = mul i64 %64, %66
  store i64 %67, ptr %3, align 8
  %68 = load i32, ptr @ConcGCThreads, align 4
  %69 = zext i32 %68 to i64
  %70 = mul i64 2097152, %69
  %71 = load i32, ptr %2, align 4
  %72 = zext i32 %71 to i64
  %73 = mul i64 %70, %72
  store i64 %73, ptr %4, align 8
  %74 = load i64, ptr %4, align 8
  %75 = load i64, ptr %3, align 8
  %76 = add i64 %74, %75
  %77 = call noundef i64 @_ZN11ZHeuristics26significant_young_overheadEv()
  %78 = icmp uge i64 %76, %77
  br i1 %78, label %79, label %80

79:                                               ; preds = %63
  br label %84

80:                                               ; preds = %63
  br label %81

81:                                               ; preds = %80
  %82 = load i32, ptr %2, align 4
  %83 = add i32 %82, 1
  store i32 %83, ptr %2, align 4
  br label %59, !llvm.loop !6

84:                                               ; preds = %79, %59
  %85 = load i32, ptr %2, align 4
  store i32 %85, ptr @MaxTenuringThreshold, align 4
  %86 = load i32, ptr %2, align 4
  %87 = icmp eq i32 %86, 0
  br i1 %87, label %88, label %91

88:                                               ; preds = %84
  %89 = call noundef zeroext i1 @_ZN7JVMFlag10is_defaultE12JVMFlagsEnum(i32 noundef 1097)
  br i1 %89, label %90, label %91

90:                                               ; preds = %88
  store i8 1, ptr @AlwaysTenure, align 1
  br label %91

91:                                               ; preds = %90, %88, %84
  br label %92

92:                                               ; preds = %91, %56
  %93 = call noundef zeroext i1 @_ZN7JVMFlag10is_defaultE12JVMFlagsEnum(i32 noundef 1083)
  br i1 %93, label %99, label %94

94:                                               ; preds = %92
  %95 = load i8, ptr @NeverTenure, align 1
  %96 = trunc i8 %95 to i1
  br i1 %96, label %97, label %99

97:                                               ; preds = %94
  call void (ptr, ptr, ...) @_ZN12FormatBufferILm256EEC2EPKcz(ptr noundef nonnull align 8 dereferenceable(264) %5, ptr noundef @.str.10)
  %98 = call noundef ptr @_ZNK16FormatBufferBasecvPKcEv(ptr noundef nonnull align 8 dereferenceable(8) %5)
  call void @_Z29vm_exit_during_initializationPKcS0_(ptr noundef %98, ptr noundef null)
  br label %99

99:                                               ; preds = %97, %94, %92
  %100 = call noundef zeroext i1 @_ZN7JVMFlag10is_defaultE12JVMFlagsEnum(i32 noundef 473)
  br i1 %100, label %106, label %101

101:                                              ; preds = %99
  %102 = load i64, ptr @LargePageSizeInBytes, align 8
  %103 = icmp ne i64 %102, 2097152
  br i1 %103, label %104, label %106

104:                                              ; preds = %101
  call void (ptr, ptr, ...) @_ZN12FormatBufferILm256EEC2EPKcz(ptr noundef nonnull align 8 dereferenceable(264) %6, ptr noundef @.str.11, i64 noundef 2)
  %105 = call noundef ptr @_ZNK16FormatBufferBasecvPKcEv(ptr noundef nonnull align 8 dereferenceable(8) %6)
  call void @_Z29vm_exit_during_initializationPKcS0_(ptr noundef %105, ptr noundef null)
  br label %106

106:                                              ; preds = %104, %101, %99
  %107 = call noundef zeroext i1 @_ZN7JVMFlag10is_defaultE12JVMFlagsEnum(i32 noundef 1083)
  br i1 %107, label %114, label %108

108:                                              ; preds = %106
  %109 = load i32, ptr @ZTenuringThreshold, align 4
  %110 = load i32, ptr @MaxTenuringThreshold, align 4
  %111 = icmp sgt i32 %109, %110
  br i1 %111, label %112, label %114

112:                                              ; preds = %108
  call void (ptr, ptr, ...) @_ZN12FormatBufferILm256EEC2EPKcz(ptr noundef nonnull align 8 dereferenceable(264) %7, ptr noundef @.str.12)
  %113 = call noundef ptr @_ZNK16FormatBufferBasecvPKcEv(ptr noundef nonnull align 8 dereferenceable(8) %7)
  call void @_Z29vm_exit_during_initializationPKcS0_(ptr noundef %113, ptr noundef null)
  br label %114

114:                                              ; preds = %112, %108, %106
  %115 = call noundef zeroext i1 @_ZN7JVMFlag10is_defaultE12JVMFlagsEnum(i32 noundef 204)
  br i1 %115, label %116, label %120

116:                                              ; preds = %114
  store i8 1, ptr @UseCountedLoopSafepoints, align 1
  %117 = call noundef zeroext i1 @_ZN7JVMFlag10is_defaultE12JVMFlagsEnum(i32 noundef 358)
  br i1 %117, label %118, label %119

118:                                              ; preds = %116
  store i64 1000, ptr @LoopStripMiningIter, align 8
  br label %119

119:                                              ; preds = %118, %116
  br label %120

120:                                              ; preds = %119, %114
  store i8 0, ptr @UseCompressedOops, align 1
  %121 = call noundef zeroext i1 @_ZN7JVMFlag10is_defaultE12JVMFlagsEnum(i32 noundef 532)
  br i1 %121, label %122, label %123

122:                                              ; preds = %120
  store i32 250, ptr @LogEventsBufferEntries, align 4
  br label %123

123:                                              ; preds = %122, %120
  store i8 0, ptr @VerifyDuringStartup, align 1
  store i8 0, ptr @VerifyBeforeExit, align 1
  %124 = load i8, ptr @VerifyBeforeGC, align 1
  %125 = trunc i8 %124 to i1
  br i1 %125, label %132, label %126

126:                                              ; preds = %123
  %127 = load i8, ptr @VerifyDuringGC, align 1
  %128 = trunc i8 %127 to i1
  br i1 %128, label %132, label %129

129:                                              ; preds = %126
  %130 = load i8, ptr @VerifyAfterGC, align 1
  %131 = trunc i8 %130 to i1
  br i1 %131, label %132, label %133

132:                                              ; preds = %129, %126, %123
  store i8 1, ptr @ZVerifyRoots, align 1
  store i8 1, ptr @ZVerifyObjects, align 1
  br label %133

133:                                              ; preds = %132, %129
  ret void
}