; Function Attrs: mustprogress nounwind uwtable
define hidden void @_ZN10ZArguments10initializeEv() local_unnamed_addr #1 align 2 {
  %1 = alloca i8, align 1
  %2 = alloca i32, align 4
  %3 = alloca double, align 8
  %4 = alloca %class.FormatBuffer, align 8
  %5 = alloca %class.FormatBuffer, align 8
  %6 = alloca %class.FormatBuffer, align 8
  %7 = tail call noundef i64 @_ZN18ZAddressSpaceLimit10mark_stackEv() #8
  %8 = load i64, ptr @ZMarkStackSpaceLimit, align 8
  %9 = icmp ugt i64 %8, %7
  br i1 %9, label %10, label %14

10:                                               ; preds = %0
  %11 = tail call noundef zeroext i1 @_ZN7JVMFlag10is_defaultE12JVMFlagsEnum(i32 noundef 1060) #8
  br i1 %11, label %13, label %12

12:                                               ; preds = %10
  tail call void @_Z29vm_exit_during_initializationPKcS0_(ptr noundef nonnull @.str.9, ptr noundef null) #8
  br label %13

13:                                               ; preds = %12, %10
  store i64 %7, ptr @ZMarkStackSpaceLimit, align 8
  br label %14

14:                                               ; preds = %13, %0
  %15 = tail call noundef zeroext i1 @_ZN7JVMFlag10is_defaultE12JVMFlagsEnum(i32 noundef 459) #8
  br i1 %15, label %16, label %17

16:                                               ; preds = %14
  store i8 1, ptr @UseNUMA, align 1
  br label %17

17:                                               ; preds = %16, %14
  tail call void @_ZN10ZArguments21select_max_gc_threadsEv()
  %18 = tail call noundef zeroext i1 @_ZN7JVMFlag10is_defaultE12JVMFlagsEnum(i32 noundef 1061) #8
  br i1 %18, label %24, label %19

19:                                               ; preds = %17
  %20 = tail call noundef zeroext i1 @_ZN7JVMFlag10is_defaultE12JVMFlagsEnum(i32 noundef 1075) #8
  br i1 %20, label %21, label %24

21:                                               ; preds = %19
  %22 = load double, ptr @ZCollectionInterval, align 8
  call void @llvm.lifetime.start.p0(i64 8, ptr nonnull %3)
  store double %22, ptr %3, align 8
  %23 = call noundef i32 @_ZN13JVMFlagAccess13set_or_assertE12JVMFlagsEnumiPv13JVMFlagOrigin(i32 noundef 1075, i32 noundef 7, ptr noundef nonnull %3, i32 noundef 5) #8
  call void @llvm.lifetime.end.p0(i64 8, ptr nonnull %3)
  br label %24

24:                                               ; preds = %21, %19, %17
  %25 = call noundef zeroext i1 @_ZN7JVMFlag10is_defaultE12JVMFlagsEnum(i32 noundef 1059) #8
  br i1 %25, label %26, label %27

26:                                               ; preds = %24
  store double 5.000000e+00, ptr @ZFragmentationLimit, align 8
  br label %27

27:                                               ; preds = %26, %24
  call void @_ZN11ZHeuristics20set_medium_page_sizeEv() #8
  %28 = call noundef zeroext i1 @_ZN7JVMFlag10is_defaultE12JVMFlagsEnum(i32 noundef 1083) #8
  %29 = load i32, ptr @ZTenuringThreshold, align 4
  %30 = icmp eq i32 %29, -1
  %or.cond.not = select i1 %28, i1 true, i1 %30
  br i1 %or.cond.not, label %43, label %31

31:                                               ; preds = %27
  %32 = call noundef zeroext i1 @_ZN7JVMFlag10is_defaultE12JVMFlagsEnum(i32 noundef 1204) #8
  br i1 %32, label %33, label %36

33:                                               ; preds = %31
  %34 = load i32, ptr @ZTenuringThreshold, align 4
  call void @llvm.lifetime.start.p0(i64 4, ptr nonnull %2)
  store i32 %34, ptr %2, align 4
  %35 = call noundef i32 @_ZN13JVMFlagAccess13set_or_assertE12JVMFlagsEnumiPv13JVMFlagOrigin(i32 noundef 1204, i32 noundef 2, ptr noundef nonnull %2, i32 noundef 5) #8
  call void @llvm.lifetime.end.p0(i64 4, ptr nonnull %2)
  br label %36

36:                                               ; preds = %31, %33
  %37 = load i32, ptr @MaxTenuringThreshold, align 4
  %38 = icmp eq i32 %37, 0
  br i1 %38, label %39, label %43

39:                                               ; preds = %36
  %40 = call noundef zeroext i1 @_ZN7JVMFlag10is_defaultE12JVMFlagsEnum(i32 noundef 1097) #8
  br i1 %40, label %41, label %43

41:                                               ; preds = %39
  call void @llvm.lifetime.start.p0(i64 1, ptr nonnull %1)
  store i8 1, ptr %1, align 1
  %42 = call noundef i32 @_ZN13JVMFlagAccess13set_or_assertE12JVMFlagsEnumiPv13JVMFlagOrigin(i32 noundef 1097, i32 noundef 0, ptr noundef nonnull %1, i32 noundef 5) #8
  call void @llvm.lifetime.end.p0(i64 1, ptr nonnull %1)
  br label %43

43:                                               ; preds = %36, %39, %41, %27
  %44 = call noundef zeroext i1 @_ZN7JVMFlag10is_defaultE12JVMFlagsEnum(i32 noundef 1204) #8
  br i1 %44, label %.preheader, label %61

.preheader:                                       ; preds = %43
  %45 = load i32, ptr @MaxTenuringThreshold, align 4
  %.not20 = icmp eq i32 %45, 0
  br i1 %.not20, label %._crit_edge.thread, label %.lr.ph

.lr.ph:                                           ; preds = %.preheader, %54
  %.017 = phi i32 [ %55, %54 ], [ 0, %.preheader ]
  %46 = load i64, ptr @ZPageSizeMedium, align 8
  %47 = zext i32 %.017 to i64
  %48 = load i32, ptr @ConcGCThreads, align 4
  %49 = zext i32 %48 to i64
  %50 = shl nuw nsw i64 %49, 21
  %51 = add i64 %50, %46
  %52 = mul i64 %51, %47
  %53 = call noundef i64 @_ZN11ZHeuristics26significant_young_overheadEv() #8
  %.not = icmp ult i64 %52, %53
  br i1 %.not, label %54, label %._crit_edge

54:                                               ; preds = %.lr.ph
  %55 = add nuw i32 %.017, 1
  %56 = load i32, ptr @MaxTenuringThreshold, align 4
  %57 = icmp ult i32 %55, %56
  br i1 %57, label %.lr.ph, label %._crit_edge.thread22, !llvm.loop !6

._crit_edge.thread22:                             ; preds = %54
  store i32 %55, ptr @MaxTenuringThreshold, align 4
  br label %61

._crit_edge:                                      ; preds = %.lr.ph
  store i32 %.017, ptr @MaxTenuringThreshold, align 4
  %58 = icmp eq i32 %.017, 0
  br i1 %58, label %._crit_edge.thread, label %61

._crit_edge.thread:                               ; preds = %.preheader, %._crit_edge
  %59 = call noundef zeroext i1 @_ZN7JVMFlag10is_defaultE12JVMFlagsEnum(i32 noundef 1097) #8
  br i1 %59, label %60, label %61

60:                                               ; preds = %._crit_edge.thread
  store i8 1, ptr @AlwaysTenure, align 1
  br label %61

61:                                               ; preds = %._crit_edge.thread22, %._crit_edge, %._crit_edge.thread, %60, %43
  %62 = call noundef zeroext i1 @_ZN7JVMFlag10is_defaultE12JVMFlagsEnum(i32 noundef 1083) #8
  br i1 %62, label %68, label %63

63:                                               ; preds = %61
  %64 = load i8, ptr @NeverTenure, align 1
  %65 = trunc i8 %64 to i1
  br i1 %65, label %66, label %68

66:                                               ; preds = %63
  call void (ptr, ptr, ...) @_ZN12FormatBufferILm256EEC2EPKcz(ptr noundef nonnull align 8 dereferenceable(264) %4, ptr noundef nonnull @.str.10)
  %67 = load ptr, ptr %4, align 8
  call void @_Z29vm_exit_during_initializationPKcS0_(ptr noundef %67, ptr noundef null) #8
  br label %68

68:                                               ; preds = %66, %63, %61
  %69 = call noundef zeroext i1 @_ZN7JVMFlag10is_defaultE12JVMFlagsEnum(i32 noundef 473) #8
  %70 = load i64, ptr @LargePageSizeInBytes, align 8
  %71 = icmp eq i64 %70, 2097152
  %or.cond4.not = select i1 %69, i1 true, i1 %71
  br i1 %or.cond4.not, label %74, label %72

72:                                               ; preds = %68
  call void (ptr, ptr, ...) @_ZN12FormatBufferILm256EEC2EPKcz(ptr noundef nonnull align 8 dereferenceable(264) %5, ptr noundef nonnull @.str.11, i64 noundef 2)
  %73 = load ptr, ptr %5, align 8
  call void @_Z29vm_exit_during_initializationPKcS0_(ptr noundef %73, ptr noundef null) #8
  br label %74

74:                                               ; preds = %72, %68
  %75 = call noundef zeroext i1 @_ZN7JVMFlag10is_defaultE12JVMFlagsEnum(i32 noundef 1083) #8
  br i1 %75, label %82, label %76

76:                                               ; preds = %74
  %77 = load i32, ptr @ZTenuringThreshold, align 4
  %78 = load i32, ptr @MaxTenuringThreshold, align 4
  %79 = icmp sgt i32 %77, %78
  br i1 %79, label %80, label %82

80:                                               ; preds = %76
  call void (ptr, ptr, ...) @_ZN12FormatBufferILm256EEC2EPKcz(ptr noundef nonnull align 8 dereferenceable(264) %6, ptr noundef nonnull @.str.12)
  %81 = load ptr, ptr %6, align 8
  call void @_Z29vm_exit_during_initializationPKcS0_(ptr noundef %81, ptr noundef null) #8
  br label %82

82:                                               ; preds = %80, %76, %74
  %83 = call noundef zeroext i1 @_ZN7JVMFlag10is_defaultE12JVMFlagsEnum(i32 noundef 204) #8
  br i1 %83, label %84, label %87

84:                                               ; preds = %82
  store i8 1, ptr @UseCountedLoopSafepoints, align 1
  %85 = call noundef zeroext i1 @_ZN7JVMFlag10is_defaultE12JVMFlagsEnum(i32 noundef 358) #8
  br i1 %85, label %86, label %87

86:                                               ; preds = %84
  store i64 1000, ptr @LoopStripMiningIter, align 8
  br label %87

87:                                               ; preds = %84, %86, %82
  store i8 0, ptr @UseCompressedOops, align 1
  %88 = call noundef zeroext i1 @_ZN7JVMFlag10is_defaultE12JVMFlagsEnum(i32 noundef 532) #8
  br i1 %88, label %89, label %90

89:                                               ; preds = %87
  store i32 250, ptr @LogEventsBufferEntries, align 4
  br label %90

90:                                               ; preds = %89, %87
  store i8 0, ptr @VerifyDuringStartup, align 1
  store i8 0, ptr @VerifyBeforeExit, align 1
  %91 = load i8, ptr @VerifyBeforeGC, align 1
  %92 = trunc i8 %91 to i1
  br i1 %92, label %99, label %93

93:                                               ; preds = %90
  %94 = load i8, ptr @VerifyDuringGC, align 1
  %95 = trunc i8 %94 to i1
  br i1 %95, label %99, label %96

96:                                               ; preds = %93
  %97 = load i8, ptr @VerifyAfterGC, align 1
  %98 = trunc i8 %97 to i1
  br i1 %98, label %99, label %100

99:                                               ; preds = %96, %93, %90
  store i8 1, ptr @ZVerifyRoots, align 1
  store i8 1, ptr @ZVerifyObjects, align 1
  br label %100

100:                                              ; preds = %99, %96
  ret void
}